target datalayout = "e-m:e-p270:32:32-p271:32:32-p272:64:64-i64:64-i128:128-f80:128-n8:16:32:64-S128"
target triple = "x86_64-pc-linux-gnu"

; Function Attrs: nounwind uwtable
define ptr @Abc_NtkAddToBdd(ptr noundef %0, ptr noundef %1, i32 noundef %2, i32 noundef %3) #0 {
  %5 = alloca ptr, align 8
  %6 = alloca ptr, align 8
  %7 = alloca i32, align 4
  %8 = alloca i32, align 4
  %9 = alloca ptr, align 8
  %10 = alloca ptr, align 8
  %11 = alloca ptr, align 8
  %12 = alloca ptr, align 8
  %13 = alloca ptr, align 8
  store ptr %0, ptr %5, align 8
  store ptr %1, ptr %6, align 8
  store i32 %2, ptr %7, align 4
  store i32 %3, ptr %8, align 4
  %14 = call ptr @stmm_init_table(ptr noundef @st__ptrcmp, ptr noundef @st__ptrhash)
  store ptr %14, ptr %12, align 8
  %15 = load ptr, ptr %5, align 8
  %16 = load ptr, ptr %6, align 8
  %17 = load i32, ptr %7, align 4
  %18 = load i32, ptr %8, align 4
  %19 = load ptr, ptr %12, align 8
  %20 = call ptr @Abc_NtkAddToBdd_rec(ptr noundef %15, ptr noundef %16, i32 noundef %17, i32 noundef %18, ptr noundef %19)
  store ptr %20, ptr %9, align 8
  %21 = load ptr, ptr %12, align 8
  %22 = call ptr @stmm_init_gen(ptr noundef %21)
  store ptr %22, ptr %13, align 8
  br label %23

23:                                               ; preds = %31, %4
  %24 = load ptr, ptr %13, align 8
  %25 = call i32 @stmm_gen(ptr noundef %24, ptr noundef %11, ptr noundef %10)
  %26 = icmp ne i32 %25, 0
  br i1 %26, label %29, label %27

27:                                               ; preds = %23
  %28 = load ptr, ptr %13, align 8
  call void @stmm_free_gen(ptr noundef %28)
  br label %29

29:                                               ; preds = %27, %23
  %30 = phi i1 [ true, %23 ], [ false, %27 ]
  br i1 %30, label %31, label %34

31:                                               ; preds = %29
  %32 = load ptr, ptr %5, align 8
  %33 = load ptr, ptr %10, align 8
  call void @Cudd_RecursiveDeref(ptr noundef %32, ptr noundef %33)
  br label %23, !llvm.loop !49

34:                                               ; preds = %29
  %35 = load ptr, ptr %12, align 8
  call void @stmm_free_table(ptr noundef %35)
  %36 = load ptr, ptr %9, align 8
  call void @Cudd_Deref(ptr noundef %36)
  %37 = load ptr, ptr %9, align 8
  ret ptr %37
}