; Function Attrs: nounwind uwtable
define ptr @Abc_NtkAddToBdd(ptr noundef %0, ptr noundef %1, i32 noundef %2, i32 noundef %3) local_unnamed_addr #0 {
  %5 = alloca ptr, align 8
  %6 = alloca ptr, align 8
  %7 = tail call ptr @stmm_init_table(ptr noundef nonnull @st__ptrcmp, ptr noundef nonnull @st__ptrhash) #18
  %8 = tail call ptr @Abc_NtkAddToBdd_rec(ptr noundef %0, ptr noundef %1, i32 noundef %2, i32 noundef %3, ptr noundef %7)
  %9 = tail call ptr @stmm_init_gen(ptr noundef %7) #18
  %10 = call i32 @stmm_gen(ptr noundef %9, ptr noundef nonnull %6, ptr noundef nonnull %5) #18
  %.not11 = icmp eq i32 %10, 0
  br i1 %.not11, label %._crit_edge, label %.critedge

._crit_edge:                                      ; preds = %.critedge, %4
  call void @stmm_free_gen(ptr noundef %9) #18
  call void @stmm_free_table(ptr noundef %7) #18
  call void @Cudd_Deref(ptr noundef %8) #18
  ret ptr %8

.critedge:                                        ; preds = %4, %.critedge
  %11 = load ptr, ptr %5, align 8
  call void @Cudd_RecursiveDeref(ptr noundef %0, ptr noundef %11) #18
  %12 = call i32 @stmm_gen(ptr noundef %9, ptr noundef nonnull %6, ptr noundef nonnull %5) #18
  %.not = icmp eq i32 %12, 0
  br i1 %.not, label %._crit_edge, label %.critedge, !llvm.loop !45
}